target datalayout = "e-m:e-p270:32:32-p271:32:32-p272:64:64-i64:64-i128:128-f80:128-n8:16:32:64-S128"
target triple = "x86_64-pc-linux-gnu"

; Function Attrs: inlinehint mustprogress nounwind uwtable
define internal noundef signext i8 @_ZL9U_FAILURE10UErrorCode(i32 noundef %0) #4 {
  %2 = alloca i32, align 4
  store i32 %0, ptr %2, align 4, !tbaa !31
  %3 = load i32, ptr %2, align 4, !tbaa !31
  %4 = icmp sgt i32 %3, 0
  %5 = zext i1 %4 to i8
  ret i8 %5
}

; Function Attrs: mustprogress uwtable
define noundef ptr @_Z26ufmt_defaultCPToUnicode_77PKciPDsi(ptr noundef %0, i32 noundef %1, ptr noundef %2, i32 noundef %3) #2 {
  %5 = alloca ptr, align 8
  %6 = alloca ptr, align 8
  %7 = alloca i32, align 4
  %8 = alloca ptr, align 8
  %9 = alloca i32, align 4
  %10 = alloca ptr, align 8
  %11 = alloca i32, align 4
  %12 = alloca ptr, align 8
  %13 = alloca i32, align 4
  store ptr %0, ptr %6, align 8, !tbaa !22
  store i32 %1, ptr %7, align 4, !tbaa !7
  store ptr %2, ptr %8, align 8, !tbaa !9
  store i32 %3, ptr %9, align 4, !tbaa !7
  call void @llvm.lifetime.start.p0(i64 8, ptr %10) #6
  call void @llvm.lifetime.start.p0(i64 4, ptr %11) #6
  store i32 0, ptr %11, align 4, !tbaa !31
  call void @llvm.lifetime.start.p0(i64 8, ptr %12) #6
  %14 = call ptr @u_getDefaultConverter_77(ptr noundef %11)
  store ptr %14, ptr %12, align 8, !tbaa !33
  %15 = load i32, ptr %11, align 4, !tbaa !31
  %16 = call noundef signext i8 @_ZL9U_FAILURE10UErrorCode(i32 noundef %15)
  %17 = icmp ne i8 %16, 0
  br i1 %17, label %21, label %18

18:                                               ; preds = %4
  %19 = load ptr, ptr %12, align 8, !tbaa !33
  %20 = icmp eq ptr %19, null
  br i1 %20, label %21, label %22

21:                                               ; preds = %18, %4
  store ptr null, ptr %5, align 8
  store i32 1, ptr %13, align 4
  br label %49

22:                                               ; preds = %18
  %23 = load i32, ptr %7, align 4, !tbaa !7
  %24 = icmp sle i32 %23, 0
  br i1 %24, label %25, label %30

25:                                               ; preds = %22
  %26 = load ptr, ptr %6, align 8, !tbaa !22
  %27 = call i64 @strlen(ptr noundef %26) #7
  %28 = trunc i64 %27 to i32
  %29 = add nsw i32 %28, 1
  store i32 %29, ptr %7, align 4, !tbaa !7
  br label %30

30:                                               ; preds = %25, %22
  %31 = load ptr, ptr %8, align 8, !tbaa !9
  %32 = icmp ne ptr %31, null
  br i1 %32, label %33, label %46

33:                                               ; preds = %30
  %34 = load ptr, ptr %8, align 8, !tbaa !9
  store ptr %34, ptr %10, align 8, !tbaa !9
  %35 = load ptr, ptr %12, align 8, !tbaa !33
  %36 = load ptr, ptr %10, align 8, !tbaa !9
  %37 = load i32, ptr %9, align 4, !tbaa !7
  %38 = sext i32 %37 to i64
  %39 = getelementptr inbounds i16, ptr %36, i64 %38
  %40 = load ptr, ptr %6, align 8, !tbaa !22
  %41 = load i32, ptr %7, align 4, !tbaa !7
  %42 = sext i32 %41 to i64
  %43 = getelementptr inbounds i8, ptr %40, i64 %42
  %44 = getelementptr inbounds i8, ptr %43, i64 -1
  call void @ucnv_toUnicode_77(ptr noundef %35, ptr noundef %10, ptr noundef %39, ptr noundef %6, ptr noundef %44, ptr noundef null, i8 noundef signext 1, ptr noundef %11)
  %45 = load ptr, ptr %10, align 8, !tbaa !9
  store i16 0, ptr %45, align 2, !tbaa !3
  br label %46

46:                                               ; preds = %33, %30
  %47 = load ptr, ptr %12, align 8, !tbaa !33
  call void @u_releaseDefaultConverter_77(ptr noundef %47)
  %48 = load ptr, ptr %8, align 8, !tbaa !9
  store ptr %48, ptr %5, align 8
  store i32 1, ptr %13, align 4
  br label %49

49:                                               ; preds = %46, %21
  call void @llvm.lifetime.end.p0(i64 8, ptr %12) #6
  call void @llvm.lifetime.end.p0(i64 4, ptr %11) #6
  call void @llvm.lifetime.end.p0(i64 8, ptr %10) #6
  %50 = load ptr, ptr %5, align 8
  ret ptr %50
}