; Function Attrs: mustprogress uwtable
define noundef ptr @_Z26ufmt_defaultCPToUnicode_77PKciPDsi(ptr noundef %0, i32 noundef %1, ptr noundef %2, i32 noundef %3) local_unnamed_addr #4 {
  %5 = alloca ptr, align 8
  %6 = alloca ptr, align 8
  %7 = alloca i32, align 4
  store ptr %0, ptr %5, align 8, !tbaa !21
  call void @llvm.lifetime.start.p0(i64 8, ptr nonnull %6) #7
  call void @llvm.lifetime.start.p0(i64 4, ptr nonnull %7) #7
  store i32 0, ptr %7, align 4, !tbaa !23
  %8 = call ptr @u_getDefaultConverter_77(ptr noundef nonnull %7)
  %9 = load i32, ptr %7, align 4, !tbaa !23
  %10 = icmp sgt i32 %9, 0
  %11 = icmp eq ptr %8, null
  %or.cond = select i1 %10, i1 true, i1 %11
  br i1 %or.cond, label %27, label %12

12:                                               ; preds = %4
  %13 = icmp slt i32 %1, 1
  br i1 %13, label %14, label %18

14:                                               ; preds = %12
  %15 = call i64 @strlen(ptr noundef nonnull dereferenceable(1) %0) #8
  %16 = trunc i64 %15 to i32
  %17 = add nsw i32 %16, 1
  br label %18

18:                                               ; preds = %14, %12
  %.010 = phi i32 [ %17, %14 ], [ %1, %12 ]
  %.not = icmp eq ptr %2, null
  br i1 %.not, label %26, label %19

19:                                               ; preds = %18
  store ptr %2, ptr %6, align 8, !tbaa !25
  %20 = sext i32 %3 to i64
  %21 = getelementptr inbounds i16, ptr %2, i64 %20
  %22 = sext i32 %.010 to i64
  %23 = getelementptr inbounds i8, ptr %0, i64 %22
  %24 = getelementptr inbounds i8, ptr %23, i64 -1
  call void @ucnv_toUnicode_77(ptr noundef nonnull %8, ptr noundef nonnull %6, ptr noundef nonnull %21, ptr noundef nonnull %5, ptr noundef nonnull %24, ptr noundef null, i8 noundef signext 1, ptr noundef nonnull %7)
  %25 = load ptr, ptr %6, align 8, !tbaa !25
  store i16 0, ptr %25, align 2, !tbaa !3
  br label %26

26:                                               ; preds = %19, %18
  call void @u_releaseDefaultConverter_77(ptr noundef nonnull %8)
  br label %27

27:                                               ; preds = %4, %26
  %.0 = phi ptr [ %2, %26 ], [ null, %4 ]
  call void @llvm.lifetime.end.p0(i64 4, ptr nonnull %7) #7
  call void @llvm.lifetime.end.p0(i64 8, ptr nonnull %6) #7
  ret ptr %.0
}